target datalayout = "e-m:e-p270:32:32-p271:32:32-p272:64:64-i64:64-i128:128-f80:128-n8:16:32:64-S128"
target triple = "x86_64-pc-linux-gnu"

%struct.OnigEncodingTypeST = type { ptr, ptr, i32, i32, ptr, ptr, ptr, ptr, ptr, ptr, ptr, ptr, ptr, ptr, ptr, ptr, ptr, i32, i32 }

; Function Attrs: nounwind sspstrong uwtable
define internal ptr @euctw_left_adjust_char_head(ptr noundef %0, ptr noundef %1, ptr noundef %2, ptr noundef %3) #0 {
  %5 = alloca ptr, align 8
  %6 = alloca ptr, align 8
  %7 = alloca ptr, align 8
  %8 = alloca ptr, align 8
  %9 = alloca ptr, align 8
  %10 = alloca ptr, align 8
  %11 = alloca i32, align 4
  %12 = alloca i32, align 4
  store ptr %0, ptr %6, align 8, !tbaa !13
  store ptr %1, ptr %7, align 8, !tbaa !13
  store ptr %2, ptr %8, align 8, !tbaa !13
  store ptr %3, ptr %9, align 8, !tbaa !14
  call void @llvm.lifetime.start.p0(i64 8, ptr %10) #3
  call void @llvm.lifetime.start.p0(i64 4, ptr %11) #3
  %13 = load ptr, ptr %7, align 8, !tbaa !13
  %14 = load ptr, ptr %6, align 8, !tbaa !13
  %15 = icmp ule ptr %13, %14
  br i1 %15, label %16, label %18

16:                                               ; preds = %4
  %17 = load ptr, ptr %7, align 8, !tbaa !13
  store ptr %17, ptr %5, align 8
  store i32 1, ptr %12, align 4
  br label %84

18:                                               ; preds = %4
  %19 = load ptr, ptr %7, align 8, !tbaa !13
  store ptr %19, ptr %10, align 8, !tbaa !13
  br label %20

20:                                               ; preds = %34, %18
  %21 = load ptr, ptr %10, align 8, !tbaa !13
  %22 = load i8, ptr %21, align 1, !tbaa !16
  %23 = zext i8 %22 to i32
  %24 = sub nsw i32 %23, 161
  %25 = trunc i32 %24 to i8
  %26 = zext i8 %25 to i32
  %27 = icmp sgt i32 %26, 93
  br i1 %27, label %32, label %28

28:                                               ; preds = %20
  %29 = load ptr, ptr %10, align 8, !tbaa !13
  %30 = load ptr, ptr %6, align 8, !tbaa !13
  %31 = icmp ugt ptr %29, %30
  br label %32

32:                                               ; preds = %28, %20
  %33 = phi i1 [ false, %20 ], [ %31, %28 ]
  br i1 %33, label %34, label %37

34:                                               ; preds = %32
  %35 = load ptr, ptr %10, align 8, !tbaa !13
  %36 = getelementptr inbounds i8, ptr %35, i32 -1
  store ptr %36, ptr %10, align 8, !tbaa !13
  br label %20, !llvm.loop !20

37:                                               ; preds = %32
  %38 = load ptr, ptr %9, align 8, !tbaa !14
  %39 = getelementptr inbounds nuw %struct.OnigEncodingTypeST, ptr %38, i32 0, i32 2
  %40 = load i32, ptr %39, align 8, !tbaa !22
  %41 = load ptr, ptr %9, align 8, !tbaa !14
  %42 = getelementptr inbounds nuw %struct.OnigEncodingTypeST, ptr %41, i32 0, i32 3
  %43 = load i32, ptr %42, align 4, !tbaa !23
  %44 = icmp eq i32 %40, %43
  br i1 %44, label %45, label %56

45:                                               ; preds = %37
  %46 = load ptr, ptr %10, align 8, !tbaa !13
  %47 = load ptr, ptr %8, align 8, !tbaa !13
  %48 = icmp ult ptr %46, %47
  br i1 %48, label %49, label %53

49:                                               ; preds = %45
  %50 = load ptr, ptr %9, align 8, !tbaa !14
  %51 = getelementptr inbounds nuw %struct.OnigEncodingTypeST, ptr %50, i32 0, i32 3
  %52 = load i32, ptr %51, align 4, !tbaa !23
  br label %54

53:                                               ; preds = %45
  br label %54

54:                                               ; preds = %53, %49
  %55 = phi i32 [ %52, %49 ], [ 0, %53 ]
  br label %61

56:                                               ; preds = %37
  %57 = load ptr, ptr %10, align 8, !tbaa !13
  %58 = load ptr, ptr %8, align 8, !tbaa !13
  %59 = load ptr, ptr %9, align 8, !tbaa !14
  %60 = call i32 @onigenc_mbclen(ptr noundef %57, ptr noundef %58, ptr noundef %59)
  br label %61

61:                                               ; preds = %56, %54
  %62 = phi i32 [ %55, %54 ], [ %60, %56 ]
  store i32 %62, ptr %11, align 4, !tbaa !17
  %63 = load ptr, ptr %10, align 8, !tbaa !13
  %64 = load i32, ptr %11, align 4, !tbaa !17
  %65 = sext i32 %64 to i64
  %66 = getelementptr inbounds i8, ptr %63, i64 %65
  %67 = load ptr, ptr %7, align 8, !tbaa !13
  %68 = icmp ugt ptr %66, %67
  br i1 %68, label %69, label %71

69:                                               ; preds = %61
  %70 = load ptr, ptr %10, align 8, !tbaa !13
  store ptr %70, ptr %5, align 8
  store i32 1, ptr %12, align 4
  br label %84

71:                                               ; preds = %61
  %72 = load i32, ptr %11, align 4, !tbaa !17
  %73 = load ptr, ptr %10, align 8, !tbaa !13
  %74 = sext i32 %72 to i64
  %75 = getelementptr inbounds i8, ptr %73, i64 %74
  store ptr %75, ptr %10, align 8, !tbaa !13
  %76 = load ptr, ptr %10, align 8, !tbaa !13
  %77 = load ptr, ptr %7, align 8, !tbaa !13
  %78 = load ptr, ptr %10, align 8, !tbaa !13
  %79 = ptrtoint ptr %77 to i64
  %80 = ptrtoint ptr %78 to i64
  %81 = sub i64 %79, %80
  %82 = and i64 %81, -2
  %83 = getelementptr inbounds i8, ptr %76, i64 %82
  store ptr %83, ptr %5, align 8
  store i32 1, ptr %12, align 4
  br label %84

84:                                               ; preds = %71, %69, %16
  call void @llvm.lifetime.end.p0(i64 4, ptr %11) #3
  call void @llvm.lifetime.end.p0(i64 8, ptr %10) #3
  %85 = load ptr, ptr %5, align 8
  ret ptr %85
}